; Function Attrs: mustprogress norecurse uwtable
define internal fastcc void @_ZN32pxrInternal_v0_24__pxrReserved__12_GLOBAL__N_114GetValueStringB5cxx11ERKNS_7VtValueERKNS0_12ReportParamsE(ptr dead_on_unwind noalias writable align 8 %0, ptr noundef nonnull align 8 dereferenceable(16) %1, i8 %.107.val) unnamed_addr #5 personality ptr @__gxx_personality_v0 {
  %3 = alloca %"class.std::__cxx11::basic_ostringstream", align 8
  %4 = alloca %"class.std::__cxx11::basic_string", align 8
  %5 = alloca %"class.std::__cxx11::basic_string", align 8
  %6 = alloca %"class.std::__cxx11::basic_string", align 8
  %7 = trunc i8 %.107.val to i1
  br i1 %7, label %13, label %8

8:                                                ; preds = %2
  %9 = tail call noundef zeroext i1 @_ZNK32pxrInternal_v0_24__pxrReserved__7VtValue13IsArrayValuedEv(ptr noundef nonnull align 8 dereferenceable(16) %1)
  br i1 %9, label %10, label %13

10:                                               ; preds = %8
  call void @_ZNK32pxrInternal_v0_24__pxrReserved__7VtValue11GetTypeNameB5cxx11Ev(ptr dead_on_unwind nonnull writable sret(%"class.std::__cxx11::basic_string") align 8 %4, ptr noundef nonnull align 8 dereferenceable(16) %1)
  %11 = call noundef ptr @_ZNKSt7__cxx1112basic_stringIcSt11char_traitsIcESaIcEE5c_strEv(ptr noundef nonnull align 8 dereferenceable(32) %4) #35
  %12 = invoke noundef i64 @_ZNK32pxrInternal_v0_24__pxrReserved__7VtValue15_GetNumElementsEv(ptr noundef nonnull align 8 dereferenceable(16) %1)
          to label %_ZNK32pxrInternal_v0_24__pxrReserved__7VtValue12GetArraySizeEv.exit unwind label %26

_ZNK32pxrInternal_v0_24__pxrReserved__7VtValue12GetArraySizeEv.exit: ; preds = %10
  invoke void (ptr, ptr, ...) @_ZN32pxrInternal_v0_24__pxrReserved__14TfStringPrintfB5cxx11EPKcz(ptr dead_on_unwind writable sret(%"class.std::__cxx11::basic_string") align 8 %0, ptr noundef nonnull @.str.213, ptr noundef %11, i64 noundef %12)
          to label %21 unwind label %26

13:                                               ; preds = %8, %2
  call void @_ZNK32pxrInternal_v0_24__pxrReserved__7VtValue11GetTypeNameB5cxx11Ev(ptr dead_on_unwind nonnull writable sret(%"class.std::__cxx11::basic_string") align 8 %5, ptr noundef nonnull align 8 dereferenceable(16) %1)
  %14 = call noundef ptr @_ZNKSt7__cxx1112basic_stringIcSt11char_traitsIcESaIcEE5c_strEv(ptr noundef nonnull align 8 dereferenceable(32) %5) #35
  call void @llvm.lifetime.start.p0(i64 376, ptr nonnull %3)
  invoke void @_ZNSt7__cxx1119basic_ostringstreamIcSt11char_traitsIcESaIcEEC1Ev(ptr noundef nonnull align 8 dereferenceable(112) %3)
          to label %.noexc unwind label %22

.noexc:                                           ; preds = %13
  %15 = invoke noundef nonnull align 8 dereferenceable(8) ptr @_ZN32pxrInternal_v0_24__pxrReserved__lsERSoRKNS_7VtValueE(ptr noundef nonnull align 8 dereferenceable(8) %3, ptr noundef nonnull align 8 dereferenceable(16) %1)
          to label %16 unwind label %17, !noalias !384

16:                                               ; preds = %.noexc
  invoke void @_ZNKSt7__cxx1119basic_ostringstreamIcSt11char_traitsIcESaIcEE3strEv(ptr dead_on_unwind nonnull writable sret(%"class.std::__cxx11::basic_string") align 8 %6, ptr noundef nonnull align 8 dereferenceable(112) %3)
          to label %19 unwind label %17

17:                                               ; preds = %16, %.noexc
  %18 = landingpad { ptr, i32 }
          cleanup
  call void @_ZNSt7__cxx1119basic_ostringstreamIcSt11char_traitsIcESaIcEED1Ev(ptr noundef nonnull align 8 dereferenceable(112) %3) #35
  br label %.thread6

19:                                               ; preds = %16
  call void @_ZNSt7__cxx1119basic_ostringstreamIcSt11char_traitsIcESaIcEED1Ev(ptr noundef nonnull align 8 dereferenceable(112) %3) #35
  call void @llvm.lifetime.end.p0(i64 376, ptr nonnull %3)
  %20 = call noundef ptr @_ZNKSt7__cxx1112basic_stringIcSt11char_traitsIcESaIcEE5c_strEv(ptr noundef nonnull align 8 dereferenceable(32) %6) #35
  invoke void (ptr, ptr, ...) @_ZN32pxrInternal_v0_24__pxrReserved__14TfStringPrintfB5cxx11EPKcz(ptr dead_on_unwind writable sret(%"class.std::__cxx11::basic_string") align 8 %0, ptr noundef nonnull @.str.214, ptr noundef %14, ptr noundef %20)
          to label %.critedge unwind label %24

.critedge:                                        ; preds = %19
  call void @_ZNSt7__cxx1112basic_stringIcSt11char_traitsIcESaIcEED1Ev(ptr noundef nonnull align 8 dereferenceable(32) %6) #35
  br label %21

21:                                               ; preds = %_ZNK32pxrInternal_v0_24__pxrReserved__7VtValue12GetArraySizeEv.exit, %.critedge
  %.sink = phi ptr [ %5, %.critedge ], [ %4, %_ZNK32pxrInternal_v0_24__pxrReserved__7VtValue12GetArraySizeEv.exit ]
  call void @_ZNSt7__cxx1112basic_stringIcSt11char_traitsIcESaIcEED1Ev(ptr noundef nonnull align 8 dereferenceable(32) %.sink) #35
  ret void

22:                                               ; preds = %13
  %23 = landingpad { ptr, i32 }
          cleanup
  br label %.thread6

24:                                               ; preds = %19
  %25 = landingpad { ptr, i32 }
          cleanup
  call void @_ZNSt7__cxx1112basic_stringIcSt11char_traitsIcESaIcEED1Ev(ptr noundef nonnull align 8 dereferenceable(32) %6) #35
  br label %.thread6

26:                                               ; preds = %_ZNK32pxrInternal_v0_24__pxrReserved__7VtValue12GetArraySizeEv.exit, %10
  %lpad.thr_comm = landingpad { ptr, i32 }
          cleanup
  br label %.thread6

.thread6:                                         ; preds = %22, %17, %24, %26
  %.sink14 = phi ptr [ %4, %26 ], [ %5, %24 ], [ %5, %17 ], [ %5, %22 ]
  %.pn.pn9 = phi { ptr, i32 } [ %lpad.thr_comm, %26 ], [ %25, %24 ], [ %18, %17 ], [ %23, %22 ]
  call void @_ZNSt7__cxx1112basic_stringIcSt11char_traitsIcESaIcEED1Ev(ptr noundef nonnull align 8 dereferenceable(32) %.sink14) #35
  resume { ptr, i32 } %.pn.pn9
}